
build\kernel.elf:     file format elf32-littlearm


Disassembly of section .text:

00008000 <_start>:
    8000:	ee110f50 	mrc	15, 0, r0, cr1, cr0, {2}
    8004:	e3800603 	orr	r0, r0, #3145728	; 0x300000
    8008:	e3800503 	orr	r0, r0, #12582912	; 0xc00000
    800c:	ee010f50 	mcr	15, 0, r0, cr1, cr0, {2}
    8010:	e3a00101 	mov	r0, #1073741824	; 0x40000000
    8014:	eee80a10 	vmsr	fpexc, r0
    8018:	e3a0d902 	mov	sp, #32768	; 0x8000
    801c:	eb0000c5 	bl	8338 <main>

00008020 <_Z4waitj>:
    8020:	e52db004 	push	{fp}		; (str fp, [sp, #-4]!)
    8024:	e28db000 	add	fp, sp, #0
    8028:	e24dd00c 	sub	sp, sp, #12
    802c:	e50b0008 	str	r0, [fp, #-8]
    8030:	e51b1008 	ldr	r1, [fp, #-8]
    8034:	e1a02001 	mov	r2, r1
    8038:	e1a02282 	lsl	r2, r2, #5
    803c:	e0422001 	sub	r2, r2, r1
    8040:	e1a03302 	lsl	r3, r2, #6
    8044:	e0433002 	sub	r3, r3, r2
    8048:	e1a03183 	lsl	r3, r3, #3
    804c:	e0833001 	add	r3, r3, r1
    8050:	e1a03303 	lsl	r3, r3, #6
    8054:	e1a02003 	mov	r2, r3
    8058:	e59f3040 	ldr	r3, [pc, #64]	; 80a0 <_Z4waitj+0x80>
    805c:	e5933000 	ldr	r3, [r3]
    8060:	e0823003 	add	r3, r2, r3
    8064:	e50b3008 	str	r3, [fp, #-8]
    8068:	e59f3030 	ldr	r3, [pc, #48]	; 80a0 <_Z4waitj+0x80>
    806c:	e5933000 	ldr	r3, [r3]
    8070:	e51b2008 	ldr	r2, [fp, #-8]
    8074:	e1520003 	cmp	r2, r3
    8078:	83a03001 	movhi	r3, #1
    807c:	93a03000 	movls	r3, #0
    8080:	e6ef3073 	uxtb	r3, r3
    8084:	e3530000 	cmp	r3, #0
    8088:	0a000000 	beq	8090 <_Z4waitj+0x70>
    808c:	eafffff5 	b	8068 <_Z4waitj+0x48>
    8090:	e320f000 	nop	{0}
    8094:	e28bd000 	add	sp, fp, #0
    8098:	e49db004 	pop	{fp}		; (ldr fp, [sp], #4)
    809c:	e12fff1e 	bx	lr
    80a0:	20003004 	andcs	r3, r0, r4

000080a4 <_Z7wait_msj>:
    80a4:	e52db004 	push	{fp}		; (str fp, [sp, #-4]!)
    80a8:	e28db000 	add	fp, sp, #0
    80ac:	e24dd00c 	sub	sp, sp, #12
    80b0:	e50b0008 	str	r0, [fp, #-8]
    80b4:	e51b2008 	ldr	r2, [fp, #-8]
    80b8:	e1a03002 	mov	r3, r2
    80bc:	e1a03283 	lsl	r3, r3, #5
    80c0:	e0433002 	sub	r3, r3, r2
    80c4:	e1a03103 	lsl	r3, r3, #2
    80c8:	e0833002 	add	r3, r3, r2
    80cc:	e1a03183 	lsl	r3, r3, #3
    80d0:	e1a02003 	mov	r2, r3
    80d4:	e59f3040 	ldr	r3, [pc, #64]	; 811c <_Z7wait_msj+0x78>
    80d8:	e5933000 	ldr	r3, [r3]
    80dc:	e0823003 	add	r3, r2, r3
    80e0:	e50b3008 	str	r3, [fp, #-8]
    80e4:	e59f3030 	ldr	r3, [pc, #48]	; 811c <_Z7wait_msj+0x78>
    80e8:	e5933000 	ldr	r3, [r3]
    80ec:	e51b2008 	ldr	r2, [fp, #-8]
    80f0:	e1520003 	cmp	r2, r3
    80f4:	83a03001 	movhi	r3, #1
    80f8:	93a03000 	movls	r3, #0
    80fc:	e6ef3073 	uxtb	r3, r3
    8100:	e3530000 	cmp	r3, #0
    8104:	0a000000 	beq	810c <_Z7wait_msj+0x68>
    8108:	eafffff5 	b	80e4 <_Z7wait_msj+0x40>
    810c:	e320f000 	nop	{0}
    8110:	e28bd000 	add	sp, fp, #0
    8114:	e49db004 	pop	{fp}		; (ldr fp, [sp], #4)
    8118:	e12fff1e 	bx	lr
    811c:	20003004 	andcs	r3, r0, r4

00008120 <_Z7wait_usj>:
    8120:	e52db004 	push	{fp}		; (str fp, [sp, #-4]!)
    8124:	e28db000 	add	fp, sp, #0
    8128:	e24dd00c 	sub	sp, sp, #12
    812c:	e50b0008 	str	r0, [fp, #-8]
    8130:	e59f3044 	ldr	r3, [pc, #68]	; 817c <_Z7wait_usj+0x5c>
    8134:	e5933000 	ldr	r3, [r3]
    8138:	e51b2008 	ldr	r2, [fp, #-8]
    813c:	e0823003 	add	r3, r2, r3
    8140:	e50b3008 	str	r3, [fp, #-8]
    8144:	e59f3030 	ldr	r3, [pc, #48]	; 817c <_Z7wait_usj+0x5c>
    8148:	e5933000 	ldr	r3, [r3]
    814c:	e51b2008 	ldr	r2, [fp, #-8]
    8150:	e1520003 	cmp	r2, r3
    8154:	83a03001 	movhi	r3, #1
    8158:	93a03000 	movls	r3, #0
    815c:	e6ef3073 	uxtb	r3, r3
    8160:	e3530000 	cmp	r3, #0
    8164:	0a000000 	beq	816c <_Z7wait_usj+0x4c>
    8168:	eafffff5 	b	8144 <_Z7wait_usj+0x24>
    816c:	e320f000 	nop	{0}
    8170:	e28bd000 	add	sp, fp, #0
    8174:	e49db004 	pop	{fp}		; (ldr fp, [sp], #4)
    8178:	e12fff1e 	bx	lr
    817c:	20003004 	andcs	r3, r0, r4

00008180 <_ZN5VWAPI4initEv>:
    8180:	e92d4800 	push	{fp, lr}
    8184:	e28db004 	add	fp, sp, #4
    8188:	e24dd060 	sub	sp, sp, #96	; 0x60
    818c:	e24b304c 	sub	r3, fp, #76	; 0x4c
    8190:	e3a02001 	mov	r2, #1
    8194:	e3a01012 	mov	r1, #18
    8198:	e1a00003 	mov	r0, r3
    819c:	eb000094 	bl	83f4 <_ZN4GPIOC1EcNS_4ModeE>
    81a0:	e24b304c 	sub	r3, fp, #76	; 0x4c
    81a4:	e3a01001 	mov	r1, #1
    81a8:	e1a00003 	mov	r0, r3
    81ac:	eb0000fd 	bl	85a8 <_ZN4GPIO8setLevelEb>
    81b0:	e24b3044 	sub	r3, fp, #68	; 0x44
    81b4:	e3a02001 	mov	r2, #1
    81b8:	e3a01005 	mov	r1, #5
    81bc:	e1a00003 	mov	r0, r3
    81c0:	eb00008b 	bl	83f4 <_ZN4GPIOC1EcNS_4ModeE>
    81c4:	e24b3044 	sub	r3, fp, #68	; 0x44
    81c8:	e3a01001 	mov	r1, #1
    81cc:	e1a00003 	mov	r0, r3
    81d0:	eb0000f4 	bl	85a8 <_ZN4GPIO8setLevelEb>
    81d4:	e24b303c 	sub	r3, fp, #60	; 0x3c
    81d8:	e3a02001 	mov	r2, #1
    81dc:	e3a01007 	mov	r1, #7
    81e0:	e1a00003 	mov	r0, r3
    81e4:	eb000082 	bl	83f4 <_ZN4GPIOC1EcNS_4ModeE>
    81e8:	e24b303c 	sub	r3, fp, #60	; 0x3c
    81ec:	e3a01001 	mov	r1, #1
    81f0:	e1a00003 	mov	r0, r3
    81f4:	eb0000eb 	bl	85a8 <_ZN4GPIO8setLevelEb>
    81f8:	e24b3034 	sub	r3, fp, #52	; 0x34
    81fc:	e3a02001 	mov	r2, #1
    8200:	e3a01011 	mov	r1, #17
    8204:	e1a00003 	mov	r0, r3
    8208:	eb000079 	bl	83f4 <_ZN4GPIOC1EcNS_4ModeE>
    820c:	e24b3034 	sub	r3, fp, #52	; 0x34
    8210:	e3a01001 	mov	r1, #1
    8214:	e1a00003 	mov	r0, r3
    8218:	eb0000e2 	bl	85a8 <_ZN4GPIO8setLevelEb>
    821c:	e24b302c 	sub	r3, fp, #44	; 0x2c
    8220:	e3a02001 	mov	r2, #1
    8224:	e3a01016 	mov	r1, #22
    8228:	e1a00003 	mov	r0, r3
    822c:	eb000070 	bl	83f4 <_ZN4GPIOC1EcNS_4ModeE>
    8230:	e24b302c 	sub	r3, fp, #44	; 0x2c
    8234:	e3a01001 	mov	r1, #1
    8238:	e1a00003 	mov	r0, r3
    823c:	eb0000d9 	bl	85a8 <_ZN4GPIO8setLevelEb>
    8240:	e24b3024 	sub	r3, fp, #36	; 0x24
    8244:	e3a02001 	mov	r2, #1
    8248:	e3a0101b 	mov	r1, #27
    824c:	e1a00003 	mov	r0, r3
    8250:	eb000067 	bl	83f4 <_ZN4GPIOC1EcNS_4ModeE>
    8254:	e24b3024 	sub	r3, fp, #36	; 0x24
    8258:	e3a01001 	mov	r1, #1
    825c:	e1a00003 	mov	r0, r3
    8260:	eb0000d0 	bl	85a8 <_ZN4GPIO8setLevelEb>
    8264:	e24b301c 	sub	r3, fp, #28
    8268:	e3a02001 	mov	r2, #1
    826c:	e3a01018 	mov	r1, #24
    8270:	e1a00003 	mov	r0, r3
    8274:	eb00005e 	bl	83f4 <_ZN4GPIOC1EcNS_4ModeE>
    8278:	e24b301c 	sub	r3, fp, #28
    827c:	e3a01000 	mov	r1, #0
    8280:	e1a00003 	mov	r0, r3
    8284:	eb0000c7 	bl	85a8 <_ZN4GPIO8setLevelEb>
    8288:	e24b3014 	sub	r3, fp, #20
    828c:	e3a02001 	mov	r2, #1
    8290:	e3a01019 	mov	r1, #25
    8294:	e1a00003 	mov	r0, r3
    8298:	eb000055 	bl	83f4 <_ZN4GPIOC1EcNS_4ModeE>
    829c:	e24b3014 	sub	r3, fp, #20
    82a0:	e3a01000 	mov	r1, #0
    82a4:	e1a00003 	mov	r0, r3
    82a8:	eb0000be 	bl	85a8 <_ZN4GPIO8setLevelEb>
    82ac:	e3a00064 	mov	r0, #100	; 0x64
    82b0:	ebffff7b 	bl	80a4 <_Z7wait_msj>
    82b4:	e24b0058 	sub	r0, fp, #88	; 0x58
    82b8:	e59f3074 	ldr	r3, [pc, #116]	; 8334 <_ZN5VWAPI4initEv+0x1b4>
    82bc:	e58d3000 	str	r3, [sp]
    82c0:	e3a03001 	mov	r3, #1
    82c4:	e3a02000 	mov	r2, #0
    82c8:	e3a01016 	mov	r1, #22
    82cc:	eb0000d4 	bl	8624 <_ZN9SPIDeviceC1Eccbj>
    82d0:	e24b3058 	sub	r3, fp, #88	; 0x58
    82d4:	e3a010ff 	mov	r1, #255	; 0xff
    82d8:	e1a00003 	mov	r0, r3
    82dc:	eb00010e 	bl	871c <_ZN9SPIDevice8transferEh>
    82e0:	e24b3058 	sub	r3, fp, #88	; 0x58
    82e4:	e3a01000 	mov	r1, #0
    82e8:	e1a00003 	mov	r0, r3
    82ec:	eb00010a 	bl	871c <_ZN9SPIDevice8transferEh>
    82f0:	e1a03000 	mov	r3, r0
    82f4:	e35300ac 	cmp	r3, #172	; 0xac
    82f8:	1a000001 	bne	8304 <_ZN5VWAPI4initEv+0x184>
    82fc:	e3a02018 	mov	r2, #24
    8300:	ea000000 	b	8308 <_ZN5VWAPI4initEv+0x188>
    8304:	e3a02019 	mov	r2, #25
    8308:	e24b300c 	sub	r3, fp, #12
    830c:	e1a01002 	mov	r1, r2
    8310:	e1a00003 	mov	r0, r3
    8314:	eb000024 	bl	83ac <_ZN4GPIOC1Ec>
    8318:	e24b300c 	sub	r3, fp, #12
    831c:	e3a01001 	mov	r1, #1
    8320:	e1a00003 	mov	r0, r3
    8324:	eb00009f 	bl	85a8 <_ZN4GPIO8setLevelEb>
    8328:	e320f000 	nop	{0}
    832c:	e24bd004 	sub	sp, fp, #4
    8330:	e8bd8800 	pop	{fp, pc}
    8334:	000493e0 	andeq	r9, r4, r0, ror #7

00008338 <main>:
    8338:	e92d4800 	push	{fp, lr}
    833c:	e28db004 	add	fp, sp, #4
    8340:	e24dd008 	sub	sp, sp, #8
    8344:	ebffff8d 	bl	8180 <_ZN5VWAPI4initEv>
    8348:	e24b3008 	sub	r3, fp, #8
    834c:	e1a00003 	mov	r0, r3
    8350:	eb000136 	bl	8830 <_ZN4UARTC1Ev>
    8354:	e24b3008 	sub	r3, fp, #8
    8358:	e59f1044 	ldr	r1, [pc, #68]	; 83a4 <main+0x6c>
    835c:	e1a00003 	mov	r0, r3
    8360:	eb00015d 	bl	88dc <_ZN4UART5writeEPc>
    8364:	e24b3008 	sub	r3, fp, #8
    8368:	e59f1038 	ldr	r1, [pc, #56]	; 83a8 <main+0x70>
    836c:	e1a00003 	mov	r0, r3
    8370:	eb000159 	bl	88dc <_ZN4UART5writeEPc>
    8374:	e24b3008 	sub	r3, fp, #8
    8378:	e3a01001 	mov	r1, #1
    837c:	e1a00003 	mov	r0, r3
    8380:	eb000176 	bl	8960 <_ZN4UART4readEi>
    8384:	e1a02000 	mov	r2, r0
    8388:	e24b3008 	sub	r3, fp, #8
    838c:	e1a01002 	mov	r1, r2
    8390:	e1a00003 	mov	r0, r3
    8394:	eb000150 	bl	88dc <_ZN4UART5writeEPc>
    8398:	e3a00ffa 	mov	r0, #1000	; 0x3e8
    839c:	ebffff40 	bl	80a4 <_Z7wait_msj>
    83a0:	eaffffef 	b	8364 <main+0x2c>
    83a4:	00008e9c 	muleq	r0, ip, lr
    83a8:	00008ecc 	andeq	r8, r0, ip, asr #29

000083ac <_ZN4GPIOC1Ec>:
    83ac:	e52db004 	push	{fp}		; (str fp, [sp, #-4]!)
    83b0:	e28db000 	add	fp, sp, #0
    83b4:	e24dd00c 	sub	sp, sp, #12
    83b8:	e50b0008 	str	r0, [fp, #-8]
    83bc:	e1a03001 	mov	r3, r1
    83c0:	e54b3009 	strb	r3, [fp, #-9]
    83c4:	e51b3008 	ldr	r3, [fp, #-8]
    83c8:	e59f2020 	ldr	r2, [pc, #32]	; 83f0 <_ZN4GPIOC1Ec+0x44>
    83cc:	e5832000 	str	r2, [r3]
    83d0:	e51b3008 	ldr	r3, [fp, #-8]
    83d4:	e55b2009 	ldrb	r2, [fp, #-9]
    83d8:	e5c32004 	strb	r2, [r3, #4]
    83dc:	e51b3008 	ldr	r3, [fp, #-8]
    83e0:	e1a00003 	mov	r0, r3
    83e4:	e28bd000 	add	sp, fp, #0
    83e8:	e49db004 	pop	{fp}		; (ldr fp, [sp], #4)
    83ec:	e12fff1e 	bx	lr
    83f0:	20200000 	eorcs	r0, r0, r0

000083f4 <_ZN4GPIOC1EcNS_4ModeE>:
    83f4:	e92d4800 	push	{fp, lr}
    83f8:	e28db004 	add	fp, sp, #4
    83fc:	e24dd008 	sub	sp, sp, #8
    8400:	e50b0008 	str	r0, [fp, #-8]
    8404:	e1a03001 	mov	r3, r1
    8408:	e54b3009 	strb	r3, [fp, #-9]
    840c:	e1a03002 	mov	r3, r2
    8410:	e54b300a 	strb	r3, [fp, #-10]
    8414:	e51b3008 	ldr	r3, [fp, #-8]
    8418:	e59f202c 	ldr	r2, [pc, #44]	; 844c <_ZN4GPIOC1EcNS_4ModeE+0x58>
    841c:	e5832000 	str	r2, [r3]
    8420:	e51b3008 	ldr	r3, [fp, #-8]
    8424:	e55b2009 	ldrb	r2, [fp, #-9]
    8428:	e5c32004 	strb	r2, [r3, #4]
    842c:	e55b300a 	ldrb	r3, [fp, #-10]
    8430:	e1a01003 	mov	r1, r3
    8434:	e51b0008 	ldr	r0, [fp, #-8]
    8438:	eb000004 	bl	8450 <_ZN4GPIO7setModeENS_4ModeE>
    843c:	e51b3008 	ldr	r3, [fp, #-8]
    8440:	e1a00003 	mov	r0, r3
    8444:	e24bd004 	sub	sp, fp, #4
    8448:	e8bd8800 	pop	{fp, pc}
    844c:	20200000 	eorcs	r0, r0, r0

00008450 <_ZN4GPIO7setModeENS_4ModeE>:
    8450:	e92d4800 	push	{fp, lr}
    8454:	e28db004 	add	fp, sp, #4
    8458:	e24dd008 	sub	sp, sp, #8
    845c:	e50b0008 	str	r0, [fp, #-8]
    8460:	e1a03001 	mov	r3, r1
    8464:	e54b3009 	strb	r3, [fp, #-9]
    8468:	e51b3008 	ldr	r3, [fp, #-8]
    846c:	e5932000 	ldr	r2, [r3]
    8470:	e51b3008 	ldr	r3, [fp, #-8]
    8474:	e5d33004 	ldrb	r3, [r3, #4]
    8478:	e59f1124 	ldr	r1, [pc, #292]	; 85a4 <_ZN4GPIO7setModeENS_4ModeE+0x154>
    847c:	e0831391 	umull	r1, r3, r1, r3
    8480:	e1a031a3 	lsr	r3, r3, #3
    8484:	e6efc073 	uxtb	ip, r3
    8488:	e1a0300c 	mov	r3, ip
    848c:	e1a03103 	lsl	r3, r3, #2
    8490:	e0823003 	add	r3, r2, r3
    8494:	e5930000 	ldr	r0, [r3]
    8498:	e51b3008 	ldr	r3, [fp, #-8]
    849c:	e5d32004 	ldrb	r2, [r3, #4]
    84a0:	e59f30fc 	ldr	r3, [pc, #252]	; 85a4 <_ZN4GPIO7setModeENS_4ModeE+0x154>
    84a4:	e0831293 	umull	r1, r3, r3, r2
    84a8:	e1a011a3 	lsr	r1, r3, #3
    84ac:	e1a03001 	mov	r3, r1
    84b0:	e1a03103 	lsl	r3, r3, #2
    84b4:	e0833001 	add	r3, r3, r1
    84b8:	e1a03083 	lsl	r3, r3, #1
    84bc:	e0423003 	sub	r3, r2, r3
    84c0:	e6ef3073 	uxtb	r3, r3
    84c4:	e1a02003 	mov	r2, r3
    84c8:	e1a03002 	mov	r3, r2
    84cc:	e1a03083 	lsl	r3, r3, #1
    84d0:	e0833002 	add	r3, r3, r2
    84d4:	e3a02007 	mov	r2, #7
    84d8:	e1a03312 	lsl	r3, r2, r3
    84dc:	e1e03003 	mvn	r3, r3
    84e0:	e1a01003 	mov	r1, r3
    84e4:	e51b3008 	ldr	r3, [fp, #-8]
    84e8:	e5932000 	ldr	r2, [r3]
    84ec:	e1a0300c 	mov	r3, ip
    84f0:	e1a03103 	lsl	r3, r3, #2
    84f4:	e0823003 	add	r3, r2, r3
    84f8:	e0002001 	and	r2, r0, r1
    84fc:	e5832000 	str	r2, [r3]
    8500:	e51b3008 	ldr	r3, [fp, #-8]
    8504:	e5932000 	ldr	r2, [r3]
    8508:	e51b3008 	ldr	r3, [fp, #-8]
    850c:	e5d33004 	ldrb	r3, [r3, #4]
    8510:	e59f108c 	ldr	r1, [pc, #140]	; 85a4 <_ZN4GPIO7setModeENS_4ModeE+0x154>
    8514:	e0831391 	umull	r1, r3, r1, r3
    8518:	e1a031a3 	lsr	r3, r3, #3
    851c:	e6efe073 	uxtb	lr, r3
    8520:	e1a0300e 	mov	r3, lr
    8524:	e1a03103 	lsl	r3, r3, #2
    8528:	e0823003 	add	r3, r2, r3
    852c:	e5930000 	ldr	r0, [r3]
    8530:	e55b3009 	ldrb	r3, [fp, #-9]
    8534:	e203c007 	and	ip, r3, #7
    8538:	e51b3008 	ldr	r3, [fp, #-8]
    853c:	e5d32004 	ldrb	r2, [r3, #4]
    8540:	e59f305c 	ldr	r3, [pc, #92]	; 85a4 <_ZN4GPIO7setModeENS_4ModeE+0x154>
    8544:	e0831293 	umull	r1, r3, r3, r2
    8548:	e1a011a3 	lsr	r1, r3, #3
    854c:	e1a03001 	mov	r3, r1
    8550:	e1a03103 	lsl	r3, r3, #2
    8554:	e0833001 	add	r3, r3, r1
    8558:	e1a03083 	lsl	r3, r3, #1
    855c:	e0423003 	sub	r3, r2, r3
    8560:	e6ef3073 	uxtb	r3, r3
    8564:	e1a02003 	mov	r2, r3
    8568:	e1a03002 	mov	r3, r2
    856c:	e1a03083 	lsl	r3, r3, #1
    8570:	e0833002 	add	r3, r3, r2
    8574:	e1a0331c 	lsl	r3, ip, r3
    8578:	e1a01003 	mov	r1, r3
    857c:	e51b3008 	ldr	r3, [fp, #-8]
    8580:	e5932000 	ldr	r2, [r3]
    8584:	e1a0300e 	mov	r3, lr
    8588:	e1a03103 	lsl	r3, r3, #2
    858c:	e0823003 	add	r3, r2, r3
    8590:	e1802001 	orr	r2, r0, r1
    8594:	e5832000 	str	r2, [r3]
    8598:	e320f000 	nop	{0}
    859c:	e24bd004 	sub	sp, fp, #4
    85a0:	e8bd8800 	pop	{fp, pc}
    85a4:	cccccccd 	stclgt	12, cr12, [ip], {205}	; 0xcd

000085a8 <_ZN4GPIO8setLevelEb>:
    85a8:	e52db004 	push	{fp}		; (str fp, [sp, #-4]!)
    85ac:	e28db000 	add	fp, sp, #0
    85b0:	e24dd00c 	sub	sp, sp, #12
    85b4:	e50b0008 	str	r0, [fp, #-8]
    85b8:	e1a03001 	mov	r3, r1
    85bc:	e54b3009 	strb	r3, [fp, #-9]
    85c0:	e51b3008 	ldr	r3, [fp, #-8]
    85c4:	e5d33004 	ldrb	r3, [r3, #4]
    85c8:	e203301f 	and	r3, r3, #31
    85cc:	e3a02001 	mov	r2, #1
    85d0:	e1a01312 	lsl	r1, r2, r3
    85d4:	e51b3008 	ldr	r3, [fp, #-8]
    85d8:	e5932000 	ldr	r2, [r3]
    85dc:	e55b3009 	ldrb	r3, [fp, #-9]
    85e0:	e3530000 	cmp	r3, #0
    85e4:	0a000001 	beq	85f0 <_ZN4GPIO8setLevelEb+0x48>
    85e8:	e3a0301c 	mov	r3, #28
    85ec:	ea000005 	b	8608 <_ZN4GPIO8setLevelEb+0x60>
    85f0:	e51b3008 	ldr	r3, [fp, #-8]
    85f4:	e5d33004 	ldrb	r3, [r3, #4]
    85f8:	e1a032a3 	lsr	r3, r3, #5
    85fc:	e6ef3073 	uxtb	r3, r3
    8600:	e283300a 	add	r3, r3, #10
    8604:	e1a03103 	lsl	r3, r3, #2
    8608:	e0823003 	add	r3, r2, r3
    860c:	e1a02001 	mov	r2, r1
    8610:	e5832000 	str	r2, [r3]
    8614:	e320f000 	nop	{0}
    8618:	e28bd000 	add	sp, fp, #0
    861c:	e49db004 	pop	{fp}		; (ldr fp, [sp], #4)
    8620:	e12fff1e 	bx	lr

00008624 <_ZN9SPIDeviceC1Eccbj>:
    8624:	e92d4800 	push	{fp, lr}
    8628:	e28db004 	add	fp, sp, #4
    862c:	e24dd028 	sub	sp, sp, #40	; 0x28
    8630:	e50b0028 	str	r0, [fp, #-40]	; 0xffffffd8
    8634:	e1a00001 	mov	r0, r1
    8638:	e1a01002 	mov	r1, r2
    863c:	e1a02003 	mov	r2, r3
    8640:	e1a03000 	mov	r3, r0
    8644:	e54b3029 	strb	r3, [fp, #-41]	; 0xffffffd7
    8648:	e1a03001 	mov	r3, r1
    864c:	e54b302a 	strb	r3, [fp, #-42]	; 0xffffffd6
    8650:	e1a03002 	mov	r3, r2
    8654:	e54b302b 	strb	r3, [fp, #-43]	; 0xffffffd5
    8658:	e51b3028 	ldr	r3, [fp, #-40]	; 0xffffffd8
    865c:	e59f20b0 	ldr	r2, [pc, #176]	; 8714 <_ZN9SPIDeviceC1Eccbj+0xf0>
    8660:	e5832008 	str	r2, [r3, #8]
    8664:	e51b3028 	ldr	r3, [fp, #-40]	; 0xffffffd8
    8668:	e55b2029 	ldrb	r2, [fp, #-41]	; 0xffffffd7
    866c:	e5c32000 	strb	r2, [r3]
    8670:	e51b3028 	ldr	r3, [fp, #-40]	; 0xffffffd8
    8674:	e55b202a 	ldrb	r2, [fp, #-42]	; 0xffffffd6
    8678:	e5c32001 	strb	r2, [r3, #1]
    867c:	e51b3028 	ldr	r3, [fp, #-40]	; 0xffffffd8
    8680:	e55b202b 	ldrb	r2, [fp, #-43]	; 0xffffffd5
    8684:	e5c32002 	strb	r2, [r3, #2]
    8688:	e59b1004 	ldr	r1, [fp, #4]
    868c:	e59f0084 	ldr	r0, [pc, #132]	; 8718 <_ZN9SPIDeviceC1Eccbj+0xf4>
    8690:	eb000105 	bl	8aac <__udivsi3>
    8694:	e1a03000 	mov	r3, r0
    8698:	e1a02083 	lsl	r2, r3, #1
    869c:	e51b3028 	ldr	r3, [fp, #-40]	; 0xffffffd8
    86a0:	e5832004 	str	r2, [r3, #4]
    86a4:	e24b3024 	sub	r3, fp, #36	; 0x24
    86a8:	e3a02004 	mov	r2, #4
    86ac:	e3a01009 	mov	r1, #9
    86b0:	e1a00003 	mov	r0, r3
    86b4:	ebffff4e 	bl	83f4 <_ZN4GPIOC1EcNS_4ModeE>
    86b8:	e24b301c 	sub	r3, fp, #28
    86bc:	e3a02004 	mov	r2, #4
    86c0:	e3a0100a 	mov	r1, #10
    86c4:	e1a00003 	mov	r0, r3
    86c8:	ebffff49 	bl	83f4 <_ZN4GPIOC1EcNS_4ModeE>
    86cc:	e24b3014 	sub	r3, fp, #20
    86d0:	e3a02004 	mov	r2, #4
    86d4:	e3a0100b 	mov	r1, #11
    86d8:	e1a00003 	mov	r0, r3
    86dc:	ebffff44 	bl	83f4 <_ZN4GPIOC1EcNS_4ModeE>
    86e0:	e55b1029 	ldrb	r1, [fp, #-41]	; 0xffffffd7
    86e4:	e24b300c 	sub	r3, fp, #12
    86e8:	e3a02001 	mov	r2, #1
    86ec:	e1a00003 	mov	r0, r3
    86f0:	ebffff3f 	bl	83f4 <_ZN4GPIOC1EcNS_4ModeE>
    86f4:	e24b300c 	sub	r3, fp, #12
    86f8:	e3a01001 	mov	r1, #1
    86fc:	e1a00003 	mov	r0, r3
    8700:	ebffffa8 	bl	85a8 <_ZN4GPIO8setLevelEb>
    8704:	e51b3028 	ldr	r3, [fp, #-40]	; 0xffffffd8
    8708:	e1a00003 	mov	r0, r3
    870c:	e24bd004 	sub	sp, fp, #4
    8710:	e8bd8800 	pop	{fp, pc}
    8714:	20204000 	eorcs	r4, r0, r0
    8718:	07735940 	ldrbeq	r5, [r3, -r0, asr #18]!

0000871c <_ZN9SPIDevice8transferEh>:
    871c:	e92d4800 	push	{fp, lr}
    8720:	e28db004 	add	fp, sp, #4
    8724:	e24dd018 	sub	sp, sp, #24
    8728:	e50b0018 	str	r0, [fp, #-24]	; 0xffffffe8
    872c:	e1a03001 	mov	r3, r1
    8730:	e54b3019 	strb	r3, [fp, #-25]	; 0xffffffe7
    8734:	e51b3018 	ldr	r3, [fp, #-24]	; 0xffffffe8
    8738:	e5d32000 	ldrb	r2, [r3]
    873c:	e24b3014 	sub	r3, fp, #20
    8740:	e1a01002 	mov	r1, r2
    8744:	e1a00003 	mov	r0, r3
    8748:	ebffff17 	bl	83ac <_ZN4GPIOC1Ec>
    874c:	e24b3014 	sub	r3, fp, #20
    8750:	e3a01000 	mov	r1, #0
    8754:	e1a00003 	mov	r0, r3
    8758:	ebffff92 	bl	85a8 <_ZN4GPIO8setLevelEb>
    875c:	e51b3018 	ldr	r3, [fp, #-24]	; 0xffffffe8
    8760:	e5d33001 	ldrb	r3, [r3, #1]
    8764:	e1a02103 	lsl	r2, r3, #2
    8768:	e51b3018 	ldr	r3, [fp, #-24]	; 0xffffffe8
    876c:	e5933008 	ldr	r3, [r3, #8]
    8770:	e5832000 	str	r2, [r3]
    8774:	e51b3018 	ldr	r3, [fp, #-24]	; 0xffffffe8
    8778:	e5933008 	ldr	r3, [r3, #8]
    877c:	e2833008 	add	r3, r3, #8
    8780:	e51b2018 	ldr	r2, [fp, #-24]	; 0xffffffe8
    8784:	e5922004 	ldr	r2, [r2, #4]
    8788:	e5832000 	str	r2, [r3]
    878c:	e51b3018 	ldr	r3, [fp, #-24]	; 0xffffffe8
    8790:	e5933008 	ldr	r3, [r3, #8]
    8794:	e5932000 	ldr	r2, [r3]
    8798:	e51b3018 	ldr	r3, [fp, #-24]	; 0xffffffe8
    879c:	e5933008 	ldr	r3, [r3, #8]
    87a0:	e38220b0 	orr	r2, r2, #176	; 0xb0
    87a4:	e5832000 	str	r2, [r3]
    87a8:	e51b3018 	ldr	r3, [fp, #-24]	; 0xffffffe8
    87ac:	e5933008 	ldr	r3, [r3, #8]
    87b0:	e2833004 	add	r3, r3, #4
    87b4:	e55b2019 	ldrb	r2, [fp, #-25]	; 0xffffffe7
    87b8:	e5832000 	str	r2, [r3]
    87bc:	e51b3018 	ldr	r3, [fp, #-24]	; 0xffffffe8
    87c0:	e5933008 	ldr	r3, [r3, #8]
    87c4:	e5933000 	ldr	r3, [r3]
    87c8:	e2033801 	and	r3, r3, #65536	; 0x10000
    87cc:	e3530000 	cmp	r3, #0
    87d0:	03a03001 	moveq	r3, #1
    87d4:	13a03000 	movne	r3, #0
    87d8:	e6ef3073 	uxtb	r3, r3
    87dc:	e3530000 	cmp	r3, #0
    87e0:	0a000000 	beq	87e8 <_ZN9SPIDevice8transferEh+0xcc>
    87e4:	eafffff4 	b	87bc <_ZN9SPIDevice8transferEh+0xa0>
    87e8:	e51b3018 	ldr	r3, [fp, #-24]	; 0xffffffe8
    87ec:	e5d32000 	ldrb	r2, [r3]
    87f0:	e24b300c 	sub	r3, fp, #12
    87f4:	e1a01002 	mov	r1, r2
    87f8:	e1a00003 	mov	r0, r3
    87fc:	ebfffeea 	bl	83ac <_ZN4GPIOC1Ec>
    8800:	e24b300c 	sub	r3, fp, #12
    8804:	e3a01001 	mov	r1, #1
    8808:	e1a00003 	mov	r0, r3
    880c:	ebffff65 	bl	85a8 <_ZN4GPIO8setLevelEb>
    8810:	e51b3018 	ldr	r3, [fp, #-24]	; 0xffffffe8
    8814:	e5933008 	ldr	r3, [r3, #8]
    8818:	e2833004 	add	r3, r3, #4
    881c:	e5933000 	ldr	r3, [r3]
    8820:	e6ef3073 	uxtb	r3, r3
    8824:	e1a00003 	mov	r0, r3
    8828:	e24bd004 	sub	sp, fp, #4
    882c:	e8bd8800 	pop	{fp, pc}

00008830 <_ZN4UARTC1Ev>:
    8830:	e92d4800 	push	{fp, lr}
    8834:	e28db004 	add	fp, sp, #4
    8838:	e24dd018 	sub	sp, sp, #24
    883c:	e50b0018 	str	r0, [fp, #-24]	; 0xffffffe8
    8840:	e51b3018 	ldr	r3, [fp, #-24]	; 0xffffffe8
    8844:	e59f2088 	ldr	r2, [pc, #136]	; 88d4 <_ZN4UARTC1Ev+0xa4>
    8848:	e5832000 	str	r2, [r3]
    884c:	e24b3014 	sub	r3, fp, #20
    8850:	e3a02004 	mov	r2, #4
    8854:	e3a0100e 	mov	r1, #14
    8858:	e1a00003 	mov	r0, r3
    885c:	ebfffee4 	bl	83f4 <_ZN4GPIOC1EcNS_4ModeE>
    8860:	e24b300c 	sub	r3, fp, #12
    8864:	e3a02004 	mov	r2, #4
    8868:	e3a0100f 	mov	r1, #15
    886c:	e1a00003 	mov	r0, r3
    8870:	ebfffedf 	bl	83f4 <_ZN4GPIOC1EcNS_4ModeE>
    8874:	e51b3018 	ldr	r3, [fp, #-24]	; 0xffffffe8
    8878:	e5933000 	ldr	r3, [r3]
    887c:	e2833024 	add	r3, r3, #36	; 0x24
    8880:	e3a0201a 	mov	r2, #26
    8884:	e5832000 	str	r2, [r3]
    8888:	e51b3018 	ldr	r3, [fp, #-24]	; 0xffffffe8
    888c:	e5933000 	ldr	r3, [r3]
    8890:	e2833028 	add	r3, r3, #40	; 0x28
    8894:	e3a02005 	mov	r2, #5
    8898:	e5832000 	str	r2, [r3]
    889c:	e51b3018 	ldr	r3, [fp, #-24]	; 0xffffffe8
    88a0:	e5933000 	ldr	r3, [r3]
    88a4:	e283302c 	add	r3, r3, #44	; 0x2c
    88a8:	e3a02070 	mov	r2, #112	; 0x70
    88ac:	e5832000 	str	r2, [r3]
    88b0:	e51b3018 	ldr	r3, [fp, #-24]	; 0xffffffe8
    88b4:	e5933000 	ldr	r3, [r3]
    88b8:	e2833030 	add	r3, r3, #48	; 0x30
    88bc:	e59f2014 	ldr	r2, [pc, #20]	; 88d8 <_ZN4UARTC1Ev+0xa8>
    88c0:	e5832000 	str	r2, [r3]
    88c4:	e51b3018 	ldr	r3, [fp, #-24]	; 0xffffffe8
    88c8:	e1a00003 	mov	r0, r3
    88cc:	e24bd004 	sub	sp, fp, #4
    88d0:	e8bd8800 	pop	{fp, pc}
    88d4:	20201000 	eorcs	r1, r0, r0
    88d8:	00000181 	andeq	r0, r0, r1, lsl #3

000088dc <_ZN4UART5writeEPc>:
    88dc:	e52db004 	push	{fp}		; (str fp, [sp, #-4]!)
    88e0:	e28db000 	add	fp, sp, #0
    88e4:	e24dd00c 	sub	sp, sp, #12
    88e8:	e50b0008 	str	r0, [fp, #-8]
    88ec:	e50b100c 	str	r1, [fp, #-12]
    88f0:	e51b300c 	ldr	r3, [fp, #-12]
    88f4:	e5d33000 	ldrb	r3, [r3]
    88f8:	e3530000 	cmp	r3, #0
    88fc:	0a000013 	beq	8950 <_ZN4UART5writeEPc+0x74>
    8900:	e51b3008 	ldr	r3, [fp, #-8]
    8904:	e5933000 	ldr	r3, [r3]
    8908:	e2833018 	add	r3, r3, #24
    890c:	e5933000 	ldr	r3, [r3]
    8910:	e2033020 	and	r3, r3, #32
    8914:	e3530000 	cmp	r3, #0
    8918:	13a03001 	movne	r3, #1
    891c:	03a03000 	moveq	r3, #0
    8920:	e6ef3073 	uxtb	r3, r3
    8924:	e3530000 	cmp	r3, #0
    8928:	0a000000 	beq	8930 <_ZN4UART5writeEPc+0x54>
    892c:	eafffff3 	b	8900 <_ZN4UART5writeEPc+0x24>
    8930:	e51b300c 	ldr	r3, [fp, #-12]
    8934:	e2832001 	add	r2, r3, #1
    8938:	e50b200c 	str	r2, [fp, #-12]
    893c:	e5d32000 	ldrb	r2, [r3]
    8940:	e51b3008 	ldr	r3, [fp, #-8]
    8944:	e5933000 	ldr	r3, [r3]
    8948:	e5832000 	str	r2, [r3]
    894c:	eaffffe7 	b	88f0 <_ZN4UART5writeEPc+0x14>
    8950:	e320f000 	nop	{0}
    8954:	e28bd000 	add	sp, fp, #0
    8958:	e49db004 	pop	{fp}		; (ldr fp, [sp], #4)
    895c:	e12fff1e 	bx	lr

00008960 <_ZN4UART4readEi>:
    8960:	e92d4800 	push	{fp, lr}
    8964:	e28db004 	add	fp, sp, #4
    8968:	e24dd018 	sub	sp, sp, #24
    896c:	e50b0018 	str	r0, [fp, #-24]	; 0xffffffe8
    8970:	e50b101c 	str	r1, [fp, #-28]	; 0xffffffe4
    8974:	e1a0300d 	mov	r3, sp
    8978:	e1a0e003 	mov	lr, r3
    897c:	e51b3018 	ldr	r3, [fp, #-24]	; 0xffffffe8
    8980:	e5933000 	ldr	r3, [r3]
    8984:	e2833018 	add	r3, r3, #24
    8988:	e5933000 	ldr	r3, [r3]
    898c:	e2033010 	and	r3, r3, #16
    8990:	e3530000 	cmp	r3, #0
    8994:	13a03001 	movne	r3, #1
    8998:	03a03000 	moveq	r3, #0
    899c:	e6ef3073 	uxtb	r3, r3
    89a0:	e3530000 	cmp	r3, #0
    89a4:	0a000001 	beq	89b0 <_ZN4UART4readEi+0x50>
    89a8:	e3a03000 	mov	r3, #0
    89ac:	ea00003a 	b	8a9c <_ZN4UART4readEi+0x13c>
    89b0:	e51b301c 	ldr	r3, [fp, #-28]	; 0xffffffe4
    89b4:	e243c001 	sub	ip, r3, #1
    89b8:	e50bc00c 	str	ip, [fp, #-12]
    89bc:	e1a0300c 	mov	r3, ip
    89c0:	e2833001 	add	r3, r3, #1
    89c4:	e1a00003 	mov	r0, r3
    89c8:	e3a01000 	mov	r1, #0
    89cc:	e3a02000 	mov	r2, #0
    89d0:	e3a03000 	mov	r3, #0
    89d4:	e1a03181 	lsl	r3, r1, #3
    89d8:	e1833ea0 	orr	r3, r3, r0, lsr #29
    89dc:	e1a02180 	lsl	r2, r0, #3
    89e0:	e1a0300c 	mov	r3, ip
    89e4:	e2833001 	add	r3, r3, #1
    89e8:	e1a00003 	mov	r0, r3
    89ec:	e3a01000 	mov	r1, #0
    89f0:	e3a02000 	mov	r2, #0
    89f4:	e3a03000 	mov	r3, #0
    89f8:	e1a03181 	lsl	r3, r1, #3
    89fc:	e1833ea0 	orr	r3, r3, r0, lsr #29
    8a00:	e1a02180 	lsl	r2, r0, #3
    8a04:	e1a0300c 	mov	r3, ip
    8a08:	e2833001 	add	r3, r3, #1
    8a0c:	e2833007 	add	r3, r3, #7
    8a10:	e1a031a3 	lsr	r3, r3, #3
    8a14:	e1a03183 	lsl	r3, r3, #3
    8a18:	e04dd003 	sub	sp, sp, r3
    8a1c:	e1a0300d 	mov	r3, sp
    8a20:	e2833000 	add	r3, r3, #0
    8a24:	e50b3010 	str	r3, [fp, #-16]
    8a28:	e3a03000 	mov	r3, #0
    8a2c:	e50b3008 	str	r3, [fp, #-8]
    8a30:	e51b3018 	ldr	r3, [fp, #-24]	; 0xffffffe8
    8a34:	e5933000 	ldr	r3, [r3]
    8a38:	e2833018 	add	r3, r3, #24
    8a3c:	e5933000 	ldr	r3, [r3]
    8a40:	e2033010 	and	r3, r3, #16
    8a44:	e3530000 	cmp	r3, #0
    8a48:	03a03001 	moveq	r3, #1
    8a4c:	13a03000 	movne	r3, #0
    8a50:	e6ef3073 	uxtb	r3, r3
    8a54:	e3530000 	cmp	r3, #0
    8a58:	0a00000c 	beq	8a90 <_ZN4UART4readEi+0x130>
    8a5c:	e51b3018 	ldr	r3, [fp, #-24]	; 0xffffffe8
    8a60:	e5933000 	ldr	r3, [r3]
    8a64:	e5933000 	ldr	r3, [r3]
    8a68:	e6ef1073 	uxtb	r1, r3
    8a6c:	e51b2010 	ldr	r2, [fp, #-16]
    8a70:	e51b3008 	ldr	r3, [fp, #-8]
    8a74:	e0823003 	add	r3, r2, r3
    8a78:	e1a02001 	mov	r2, r1
    8a7c:	e5c32000 	strb	r2, [r3]
    8a80:	e51b3008 	ldr	r3, [fp, #-8]
    8a84:	e2833001 	add	r3, r3, #1
    8a88:	e50b3008 	str	r3, [fp, #-8]
    8a8c:	eaffffe7 	b	8a30 <_ZN4UART4readEi+0xd0>
    8a90:	e51b3010 	ldr	r3, [fp, #-16]
    8a94:	e50b3014 	str	r3, [fp, #-20]	; 0xffffffec
    8a98:	e51b3014 	ldr	r3, [fp, #-20]	; 0xffffffec
    8a9c:	e1a0d00e 	mov	sp, lr
    8aa0:	e1a00003 	mov	r0, r3
    8aa4:	e24bd004 	sub	sp, fp, #4
    8aa8:	e8bd8800 	pop	{fp, pc}

00008aac <__udivsi3>:
    8aac:	e2512001 	subs	r2, r1, #1
    8ab0:	012fff1e 	bxeq	lr
    8ab4:	3a000074 	bcc	8c8c <__udivsi3+0x1e0>
    8ab8:	e1500001 	cmp	r0, r1
    8abc:	9a00006b 	bls	8c70 <__udivsi3+0x1c4>
    8ac0:	e1110002 	tst	r1, r2
    8ac4:	0a00006c 	beq	8c7c <__udivsi3+0x1d0>
    8ac8:	e16f3f10 	clz	r3, r0
    8acc:	e16f2f11 	clz	r2, r1
    8ad0:	e0423003 	sub	r3, r2, r3
    8ad4:	e273301f 	rsbs	r3, r3, #31
    8ad8:	10833083 	addne	r3, r3, r3, lsl #1
    8adc:	e3a02000 	mov	r2, #0
    8ae0:	108ff103 	addne	pc, pc, r3, lsl #2
    8ae4:	e1a00000 	nop			; (mov r0, r0)
    8ae8:	e1500f81 	cmp	r0, r1, lsl #31
    8aec:	e0a22002 	adc	r2, r2, r2
    8af0:	20400f81 	subcs	r0, r0, r1, lsl #31
    8af4:	e1500f01 	cmp	r0, r1, lsl #30
    8af8:	e0a22002 	adc	r2, r2, r2
    8afc:	20400f01 	subcs	r0, r0, r1, lsl #30
    8b00:	e1500e81 	cmp	r0, r1, lsl #29
    8b04:	e0a22002 	adc	r2, r2, r2
    8b08:	20400e81 	subcs	r0, r0, r1, lsl #29
    8b0c:	e1500e01 	cmp	r0, r1, lsl #28
    8b10:	e0a22002 	adc	r2, r2, r2
    8b14:	20400e01 	subcs	r0, r0, r1, lsl #28
    8b18:	e1500d81 	cmp	r0, r1, lsl #27
    8b1c:	e0a22002 	adc	r2, r2, r2
    8b20:	20400d81 	subcs	r0, r0, r1, lsl #27
    8b24:	e1500d01 	cmp	r0, r1, lsl #26
    8b28:	e0a22002 	adc	r2, r2, r2
    8b2c:	20400d01 	subcs	r0, r0, r1, lsl #26
    8b30:	e1500c81 	cmp	r0, r1, lsl #25
    8b34:	e0a22002 	adc	r2, r2, r2
    8b38:	20400c81 	subcs	r0, r0, r1, lsl #25
    8b3c:	e1500c01 	cmp	r0, r1, lsl #24
    8b40:	e0a22002 	adc	r2, r2, r2
    8b44:	20400c01 	subcs	r0, r0, r1, lsl #24
    8b48:	e1500b81 	cmp	r0, r1, lsl #23
    8b4c:	e0a22002 	adc	r2, r2, r2
    8b50:	20400b81 	subcs	r0, r0, r1, lsl #23
    8b54:	e1500b01 	cmp	r0, r1, lsl #22
    8b58:	e0a22002 	adc	r2, r2, r2
    8b5c:	20400b01 	subcs	r0, r0, r1, lsl #22
    8b60:	e1500a81 	cmp	r0, r1, lsl #21
    8b64:	e0a22002 	adc	r2, r2, r2
    8b68:	20400a81 	subcs	r0, r0, r1, lsl #21
    8b6c:	e1500a01 	cmp	r0, r1, lsl #20
    8b70:	e0a22002 	adc	r2, r2, r2
    8b74:	20400a01 	subcs	r0, r0, r1, lsl #20
    8b78:	e1500981 	cmp	r0, r1, lsl #19
    8b7c:	e0a22002 	adc	r2, r2, r2
    8b80:	20400981 	subcs	r0, r0, r1, lsl #19
    8b84:	e1500901 	cmp	r0, r1, lsl #18
    8b88:	e0a22002 	adc	r2, r2, r2
    8b8c:	20400901 	subcs	r0, r0, r1, lsl #18
    8b90:	e1500881 	cmp	r0, r1, lsl #17
    8b94:	e0a22002 	adc	r2, r2, r2
    8b98:	20400881 	subcs	r0, r0, r1, lsl #17
    8b9c:	e1500801 	cmp	r0, r1, lsl #16
    8ba0:	e0a22002 	adc	r2, r2, r2
    8ba4:	20400801 	subcs	r0, r0, r1, lsl #16
    8ba8:	e1500781 	cmp	r0, r1, lsl #15
    8bac:	e0a22002 	adc	r2, r2, r2
    8bb0:	20400781 	subcs	r0, r0, r1, lsl #15
    8bb4:	e1500701 	cmp	r0, r1, lsl #14
    8bb8:	e0a22002 	adc	r2, r2, r2
    8bbc:	20400701 	subcs	r0, r0, r1, lsl #14
    8bc0:	e1500681 	cmp	r0, r1, lsl #13
    8bc4:	e0a22002 	adc	r2, r2, r2
    8bc8:	20400681 	subcs	r0, r0, r1, lsl #13
    8bcc:	e1500601 	cmp	r0, r1, lsl #12
    8bd0:	e0a22002 	adc	r2, r2, r2
    8bd4:	20400601 	subcs	r0, r0, r1, lsl #12
    8bd8:	e1500581 	cmp	r0, r1, lsl #11
    8bdc:	e0a22002 	adc	r2, r2, r2
    8be0:	20400581 	subcs	r0, r0, r1, lsl #11
    8be4:	e1500501 	cmp	r0, r1, lsl #10
    8be8:	e0a22002 	adc	r2, r2, r2
    8bec:	20400501 	subcs	r0, r0, r1, lsl #10
    8bf0:	e1500481 	cmp	r0, r1, lsl #9
    8bf4:	e0a22002 	adc	r2, r2, r2
    8bf8:	20400481 	subcs	r0, r0, r1, lsl #9
    8bfc:	e1500401 	cmp	r0, r1, lsl #8
    8c00:	e0a22002 	adc	r2, r2, r2
    8c04:	20400401 	subcs	r0, r0, r1, lsl #8
    8c08:	e1500381 	cmp	r0, r1, lsl #7
    8c0c:	e0a22002 	adc	r2, r2, r2
    8c10:	20400381 	subcs	r0, r0, r1, lsl #7
    8c14:	e1500301 	cmp	r0, r1, lsl #6
    8c18:	e0a22002 	adc	r2, r2, r2
    8c1c:	20400301 	subcs	r0, r0, r1, lsl #6
    8c20:	e1500281 	cmp	r0, r1, lsl #5
    8c24:	e0a22002 	adc	r2, r2, r2
    8c28:	20400281 	subcs	r0, r0, r1, lsl #5
    8c2c:	e1500201 	cmp	r0, r1, lsl #4
    8c30:	e0a22002 	adc	r2, r2, r2
    8c34:	20400201 	subcs	r0, r0, r1, lsl #4
    8c38:	e1500181 	cmp	r0, r1, lsl #3
    8c3c:	e0a22002 	adc	r2, r2, r2
    8c40:	20400181 	subcs	r0, r0, r1, lsl #3
    8c44:	e1500101 	cmp	r0, r1, lsl #2
    8c48:	e0a22002 	adc	r2, r2, r2
    8c4c:	20400101 	subcs	r0, r0, r1, lsl #2
    8c50:	e1500081 	cmp	r0, r1, lsl #1
    8c54:	e0a22002 	adc	r2, r2, r2
    8c58:	20400081 	subcs	r0, r0, r1, lsl #1
    8c5c:	e1500001 	cmp	r0, r1
    8c60:	e0a22002 	adc	r2, r2, r2
    8c64:	20400001 	subcs	r0, r0, r1
    8c68:	e1a00002 	mov	r0, r2
    8c6c:	e12fff1e 	bx	lr
    8c70:	03a00001 	moveq	r0, #1
    8c74:	13a00000 	movne	r0, #0
    8c78:	e12fff1e 	bx	lr
    8c7c:	e16f2f11 	clz	r2, r1
    8c80:	e262201f 	rsb	r2, r2, #31
    8c84:	e1a00230 	lsr	r0, r0, r2
    8c88:	e12fff1e 	bx	lr
    8c8c:	e3500000 	cmp	r0, #0
    8c90:	13e00000 	mvnne	r0, #0
    8c94:	ea000007 	b	8cb8 <__aeabi_idiv0>

00008c98 <__aeabi_uidivmod>:
    8c98:	e3510000 	cmp	r1, #0
    8c9c:	0afffffa 	beq	8c8c <__udivsi3+0x1e0>
    8ca0:	e92d4003 	push	{r0, r1, lr}
    8ca4:	ebffff80 	bl	8aac <__udivsi3>
    8ca8:	e8bd4006 	pop	{r1, r2, lr}
    8cac:	e0030092 	mul	r3, r2, r0
    8cb0:	e0411003 	sub	r1, r1, r3
    8cb4:	e12fff1e 	bx	lr

00008cb8 <__aeabi_idiv0>:
    8cb8:	e12fff1e 	bx	lr

Disassembly of section .rodata:

00008cbc <_ZL4font>:
    8cbc:	00000000 	andeq	r0, r0, r0
    8cc0:	5f000000 	svcpl	0x00000000
    8cc4:	07000000 	streq	r0, [r0, -r0]
    8cc8:	14000700 	strne	r0, [r0], #-1792	; 0xfffff900
    8ccc:	147f147f 	ldrbtne	r1, [pc], #-1151	; 8cd4 <_ZL4font+0x18>
    8cd0:	2a7f2a24 	bcs	1fd3568 <_stack+0x1f53568>
    8cd4:	08132312 	ldmdaeq	r3, {r1, r4, r8, r9, sp}
    8cd8:	49366264 	ldmdbmi	r6!, {r2, r5, r6, r9, sp, lr}
    8cdc:	00502255 	subseq	r2, r0, r5, asr r2
    8ce0:	00000305 	andeq	r0, r0, r5, lsl #6
    8ce4:	41221c00 			; <UNDEFINED> instruction: 0x41221c00
    8ce8:	22410000 	subcs	r0, r1, #0
    8cec:	0814001c 	ldmdaeq	r4, {r2, r3, r4}
    8cf0:	0814083e 	ldmdaeq	r4, {r1, r2, r3, r4, r5, fp}
    8cf4:	08083e08 	stmdaeq	r8, {r3, r9, sl, fp, ip, sp}
    8cf8:	00305000 	eorseq	r5, r0, r0
    8cfc:	08080800 	stmdaeq	r8, {fp}
    8d00:	60000808 	andvs	r0, r0, r8, lsl #16
    8d04:	20000060 	andcs	r0, r0, r0, rrx
    8d08:	02040810 	andeq	r0, r4, #16, 16	; 0x100000
    8d0c:	4549513e 	strbmi	r5, [r9, #-318]	; 0xfffffec2
    8d10:	7f42003e 	svcvc	0x0042003e
    8d14:	61420040 	cmpvs	r2, r0, asr #32
    8d18:	21464951 	cmpcs	r6, r1, asr r9
    8d1c:	314b4541 	cmpcc	fp, r1, asr #10
    8d20:	7f121418 	svcvc	0x00121418
    8d24:	45452710 	strbmi	r2, [r5, #-1808]	; 0xfffff8f0
    8d28:	4a3c3945 	bmi	f17244 <_stack+0xe97244>
    8d2c:	01304949 	teqeq	r0, r9, asr #18
    8d30:	03050971 	movweq	r0, #22897	; 0x5971
    8d34:	49494936 	stmdbmi	r9, {r1, r2, r4, r5, r8, fp, lr}^
    8d38:	49490636 	stmdbmi	r9, {r1, r2, r4, r5, r9, sl}^
    8d3c:	36001e29 	strcc	r1, [r0], -r9, lsr #28
    8d40:	00000036 	andeq	r0, r0, r6, lsr r0
    8d44:	00003656 	andeq	r3, r0, r6, asr r6
    8d48:	41221408 			; <UNDEFINED> instruction: 0x41221408
    8d4c:	14141400 	ldrne	r1, [r4], #-1024	; 0xfffffc00
    8d50:	41001414 	tstmi	r0, r4, lsl r4
    8d54:	02081422 	andeq	r1, r8, #570425344	; 0x22000000
    8d58:	06095101 	streq	r5, [r9], -r1, lsl #2
    8d5c:	41794932 	cmnmi	r9, r2, lsr r9
    8d60:	11117e3e 	tstne	r1, lr, lsr lr
    8d64:	497f7e11 	ldmdbmi	pc!, {r0, r4, r9, sl, fp, ip, sp, lr}^	; <UNPREDICTABLE>
    8d68:	3e364949 	vsubcc.f16	s8, s12, s18	; <UNPREDICTABLE>
    8d6c:	22414141 	subcs	r4, r1, #1073741840	; 0x40000010
    8d70:	2241417f 	subcs	r4, r1, #-1073741793	; 0xc000001f
    8d74:	49497f1c 	stmdbmi	r9, {r2, r3, r4, r8, r9, sl, fp, ip, sp, lr}^
    8d78:	097f4149 	ldmdbeq	pc!, {r0, r3, r6, r8, lr}^	; <UNPREDICTABLE>
    8d7c:	3e010909 	vmlacc.f16	s0, s2, s18	; <UNPREDICTABLE>
    8d80:	7a494941 	bvc	125b28c <_stack+0x11db28c>
    8d84:	0808087f 	stmdaeq	r8, {r0, r1, r2, r3, r4, r5, r6, fp}
    8d88:	7f41007f 	svcvc	0x0041007f
    8d8c:	40200041 	eormi	r0, r0, r1, asr #32
    8d90:	7f013f41 	svcvc	0x00013f41
    8d94:	41221408 			; <UNDEFINED> instruction: 0x41221408
    8d98:	4040407f 	submi	r4, r0, pc, ror r0
    8d9c:	0c027f40 	stceq	15, cr7, [r2], {64}	; 0x40
    8da0:	047f7f02 	ldrbteq	r7, [pc], #-3842	; 8da8 <_ZL4font+0xec>
    8da4:	3e7f1008 	cdpcc	0, 7, cr1, cr15, cr8, {0}
    8da8:	3e414141 	dvfccsm	f4, f1, f1
    8dac:	0909097f 	stmdbeq	r9, {r0, r1, r2, r3, r4, r5, r6, r8, fp}
    8db0:	51413e06 	cmppl	r1, r6, lsl #28
    8db4:	097f5e21 	ldmdbeq	pc!, {r0, r5, r9, sl, fp, ip, lr}^	; <UNPREDICTABLE>
    8db8:	46462919 			; <UNDEFINED> instruction: 0x46462919
    8dbc:	31494949 	cmpcc	r9, r9, asr #18
    8dc0:	017f0101 	cmneq	pc, r1, lsl #2
    8dc4:	40403f01 	submi	r3, r0, r1, lsl #30
    8dc8:	201f3f40 	andscs	r3, pc, r0, asr #30
    8dcc:	3f1f2040 	svccc	0x001f2040
    8dd0:	3f403840 	svccc	0x00403840
    8dd4:	14081463 	strne	r1, [r8], #-1123	; 0xfffffb9d
    8dd8:	70080763 	andvc	r0, r8, r3, ror #14
    8ddc:	51610708 	cmnpl	r1, r8, lsl #14
    8de0:	00434549 	subeq	r4, r3, r9, asr #10
    8de4:	0041417f 	subeq	r4, r1, pc, ror r1
    8de8:	10080402 	andne	r0, r8, r2, lsl #8
    8dec:	41410020 	cmpmi	r1, r0, lsr #32
    8df0:	0204007f 	andeq	r0, r4, #127	; 0x7f
    8df4:	40040201 	andmi	r0, r4, r1, lsl #4
    8df8:	40404040 	submi	r4, r0, r0, asr #32
    8dfc:	04020100 	streq	r0, [r2], #-256	; 0xffffff00
    8e00:	54542000 	ldrbpl	r2, [r4], #-0
    8e04:	487f7854 	ldmdami	pc!, {r2, r4, r6, fp, ip, sp, lr}^	; <UNPREDICTABLE>
    8e08:	38384444 	ldmdacc	r8!, {r2, r6, sl, lr}
    8e0c:	20444444 	subcs	r4, r4, r4, asr #8
    8e10:	48444438 	stmdami	r4, {r3, r4, r5, sl, lr}^
    8e14:	5454387f 	ldrbpl	r3, [r4], #-2175	; 0xfffff781
    8e18:	7e081854 	mcrvc	8, 0, r1, cr8, cr4, {2}
    8e1c:	0c020109 	stfeqs	f0, [r2], {9}
    8e20:	3e525252 	mrccc	2, 2, r5, cr2, cr2, {2}
    8e24:	0404087f 	streq	r0, [r4], #-2175	; 0xfffff781
    8e28:	7d440078 	stclvc	0, cr0, [r4, #-480]	; 0xfffffe20
    8e2c:	40200040 	eormi	r0, r0, r0, asr #32
    8e30:	7f003d44 	svcvc	0x00003d44
    8e34:	00442810 	subeq	r2, r4, r0, lsl r8
    8e38:	407f4100 	rsbsmi	r4, pc, r0, lsl #2
    8e3c:	18047c00 	stmdane	r4, {sl, fp, ip, sp, lr}
    8e40:	087c7804 	ldmdaeq	ip!, {r2, fp, ip, sp, lr}^
    8e44:	38780404 	ldmdacc	r8!, {r2, sl}^
    8e48:	38444444 	stmdacc	r4, {r2, r6, sl, lr}^
    8e4c:	1414147c 	ldrne	r1, [r4], #-1148	; 0xfffffb84
    8e50:	14140808 	ldrne	r0, [r4], #-2056	; 0xfffff7f8
    8e54:	087c7c18 	ldmdaeq	ip!, {r3, r4, sl, fp, ip, sp, lr}^
    8e58:	48080404 	stmdami	r8, {r2, sl}
    8e5c:	20545454 	subscs	r5, r4, r4, asr r4
    8e60:	40443f04 	submi	r3, r4, r4, lsl #30
    8e64:	40403c20 	submi	r3, r0, r0, lsr #24
    8e68:	201c7c20 	andscs	r7, ip, r0, lsr #24
    8e6c:	3c1c2040 	ldccc	0, cr2, [ip], {64}	; 0x40
    8e70:	3c403040 	mcrrcc	0, 4, r3, r0, cr0
    8e74:	28102844 	ldmdacs	r0, {r2, r6, fp, sp}
    8e78:	50500c44 	subspl	r0, r0, r4, asr #24
    8e7c:	64443c50 	strbvs	r3, [r4], #-3152	; 0xfffff3b0
    8e80:	00444c54 	subeq	r4, r4, r4, asr ip
    8e84:	00413608 	subeq	r3, r1, r8, lsl #12
    8e88:	007f0000 	rsbseq	r0, pc, r0
    8e8c:	36410000 	strbcc	r0, [r1], -r0
    8e90:	08100008 	ldmdaeq	r0, {r3}
    8e94:	78081008 	stmdavc	r8, {r3, ip}
    8e98:	78464146 	stmdavc	r6, {r1, r2, r6, r8, lr}^
    8e9c:	3d3d0a0a 	vldmdbcc	sp!, {s0-s9}
    8ea0:	3d3d3d3d 	ldccc	13, cr3, [sp, #-244]!	; 0xffffff0c
    8ea4:	3d3d3d3d 	ldccc	13, cr3, [sp, #-244]!	; 0xffffff0c
    8ea8:	3d3d3d3d 	ldccc	13, cr3, [sp, #-244]!	; 0xffffff0c
    8eac:	5756200a 	ldrbpl	r2, [r6, -sl]
    8eb0:	20495041 	subcs	r5, r9, r1, asr #32
    8eb4:	49524553 	ldmdbmi	r2, {r0, r1, r4, r6, r8, sl, lr}^
    8eb8:	3d0a4c41 	stccc	12, cr4, [sl, #-260]	; 0xfffffefc
    8ebc:	3d3d3d3d 	ldccc	13, cr3, [sp, #-244]!	; 0xffffff0c
    8ec0:	3d3d3d3d 	ldccc	13, cr3, [sp, #-244]!	; 0xffffff0c
    8ec4:	3d3d3d3d 	ldccc	13, cr3, [sp, #-244]!	; 0xffffff0c
    8ec8:	000a0a3d 	andeq	r0, sl, sp, lsr sl
    8ecc:	7473614c 	ldrbtvc	r6, [r3], #-332	; 0xfffffeb4
    8ed0:	61684320 	cmnvs	r8, r0, lsr #6
    8ed4:	00203a72 	eoreq	r3, r0, r2, ror sl

Disassembly of section .ARM.exidx:

00008ed8 <__data_start-0x10008>:
    8ed8:	7ffff148 	svcvc	0x00fff148
    8edc:	00000001 	andeq	r0, r0, r1

Disassembly of section .bss:

00018ee0 <_ZN5VWAPI6activeE>:
   18ee0:	00000000 	andeq	r0, r0, r0

Disassembly of section .comment:

00000000 <_stack-0x80000>:
   0:	3a434347 	bcc	10d0d24 <_stack+0x1050d24>
   4:	4e472820 	cdpmi	8, 4, cr2, cr7, cr0, {1}
   8:	72412055 	subvc	r2, r1, #85	; 0x55
   c:	6d45206d 	stclvs	0, cr2, [r5, #-436]	; 0xfffffe4c
  10:	64646562 	strbtvs	r6, [r4], #-1378	; 0xfffffa9e
  14:	54206465 	strtpl	r6, [r0], #-1125	; 0xfffffb9b
  18:	636c6f6f 	cmnvs	ip, #444	; 0x1bc
  1c:	6e696168 	powvsez	f6, f1, #0.0
  20:	322d3920 	eorcc	r3, sp, #32, 18	; 0x80000
  24:	2d303230 	lfmcs	f3, 4, [r0, #-192]!	; 0xffffff40
  28:	752d3271 	strvc	r3, [sp, #-625]!	; 0xfffffd8f
  2c:	74616470 	strbtvc	r6, [r1], #-1136	; 0xfffffb90
  30:	39202965 	stmdbcc	r0!, {r0, r2, r5, r6, r8, fp, sp}
  34:	312e332e 			; <UNDEFINED> instruction: 0x312e332e
  38:	32303220 	eorscc	r3, r0, #32, 4
  3c:	30343030 	eorscc	r3, r4, r0, lsr r0
  40:	72282038 	eorvc	r2, r8, #56	; 0x38
  44:	61656c65 	cmnvs	r5, r5, ror #24
  48:	00296573 	eoreq	r6, r9, r3, ror r5

Disassembly of section .debug_frame:

00000000 <.debug_frame>:
   0:	0000000c 	andeq	r0, r0, ip
   4:	ffffffff 			; <UNDEFINED> instruction: 0xffffffff
   8:	7c010001 	stcvc	0, cr0, [r1], {1}
   c:	000d0c0e 	andeq	r0, sp, lr, lsl #24
  10:	0000000c 	andeq	r0, r0, ip
  14:	00000000 	andeq	r0, r0, r0
  18:	00008aac 	andeq	r8, r0, ip, lsr #21
  1c:	000001ec 	andeq	r0, r0, ip, ror #3

Disassembly of section .ARM.attributes:

00000000 <.ARM.attributes>:
   0:	00002e41 	andeq	r2, r0, r1, asr #28
   4:	61656100 	cmnvs	r5, r0, lsl #2
   8:	01006962 	tsteq	r0, r2, ror #18
   c:	00000024 	andeq	r0, r0, r4, lsr #32
  10:	4b5a3605 	blmi	168d82c <_stack+0x160d82c>
  14:	08070600 	stmdaeq	r7, {r9, sl}
  18:	0a010901 	beq	42424 <__bss_end__+0x29540>
  1c:	14041202 	strne	r1, [r4], #-514	; 0xfffffdfe
  20:	17011501 	strne	r1, [r1, -r1, lsl #10]
  24:	1a011803 	bne	46038 <__bss_end__+0x2d154>
  28:	22011c01 	andcs	r1, r1, #256	; 0x100
  2c:	Address 0x0000002c is out of bounds.

